target datalayout = "e-m:e-p270:32:32-p271:32:32-p272:64:64-i64:64-i128:128-f80:128-n8:16:32:64-S128"
target triple = "x86_64-pc-linux-gnu"

%"class.icu_77::number::Scale" = type <{ i32, [4 x i8], ptr, i32, [4 x i8] }>

; Function Attrs: mustprogress uwtable
define void @_ZNK6icu_776number5Scale17applyReciprocalToERNS0_4impl15DecimalQuantityE(ptr noundef nonnull align 8 dereferenceable(20) %0, ptr noundef nonnull align 8 dereferenceable(66) %1) #1 align 2 {
  %3 = alloca ptr, align 8
  %4 = alloca ptr, align 8
  %5 = alloca i32, align 4
  store ptr %0, ptr %3, align 8, !tbaa !23
  store ptr %1, ptr %4, align 8, !tbaa !43
  %6 = load ptr, ptr %3, align 8
  %7 = load ptr, ptr %4, align 8, !tbaa !43
  %8 = getelementptr inbounds nuw %"class.icu_77::number::Scale", ptr %6, i32 0, i32 0
  %9 = load i32, ptr %8, align 8, !tbaa !27
  %10 = sub nsw i32 0, %9
  %11 = call noundef zeroext i1 @_ZN6icu_776number4impl15DecimalQuantity15adjustMagnitudeEi(ptr noundef nonnull align 8 dereferenceable(66) %7, i32 noundef %10)
  %12 = getelementptr inbounds nuw %"class.icu_77::number::Scale", ptr %6, i32 0, i32 2
  %13 = load ptr, ptr %12, align 8, !tbaa !29
  %14 = icmp ne ptr %13, null
  br i1 %14, label %15, label %19

15:                                               ; preds = %2
  call void @llvm.lifetime.start.p0(i64 4, ptr %5) #10
  store i32 0, ptr %5, align 4, !tbaa !15
  %16 = load ptr, ptr %4, align 8, !tbaa !43
  %17 = getelementptr inbounds nuw %"class.icu_77::number::Scale", ptr %6, i32 0, i32 2
  %18 = load ptr, ptr %17, align 8, !tbaa !29
  call void @_ZN6icu_776number4impl15DecimalQuantity8divideByERKNS1_6DecNumER10UErrorCode(ptr noundef nonnull align 8 dereferenceable(66) %16, ptr noundef nonnull align 8 dereferenceable(92) %18, ptr noundef nonnull align 4 dereferenceable(4) %5)
  call void @llvm.lifetime.end.p0(i64 4, ptr %5) #10
  br label %19

19:                                               ; preds = %15, %2
  ret void
}